; Function Attrs: mustprogress uwtable
define noundef i32 @_ZN3zmq13zmtp_engine_t20produce_ping_messageEPNS_5msg_tE(ptr noundef nonnull align 8 dereferenceable(1976) %this, ptr noundef %msg_) unnamed_addr #0 align 2 {
entry:
  %_mechanism = getelementptr inbounds i8, ptr %this, i64 1408
  %0 = load ptr, ptr %_mechanism, align 8
  %cmp.not = icmp eq ptr %0, null
  br i1 %cmp.not, label %if.then, label %do.end

if.then:                                          ; preds = %entry
  %1 = load ptr, ptr @stderr, align 8
  %call = tail call i32 (ptr, ptr, ...) @fprintf(ptr noundef %1, ptr noundef nonnull @.str.2, ptr noundef nonnull @.str.15, ptr noundef nonnull @.str.1, i32 noundef 451) #18
  %2 = load ptr, ptr @stderr, align 8
  %call2 = tail call i32 @fflush(ptr noundef %2)
  tail call void @_ZN3zmq9zmq_abortEPKc(ptr noundef nonnull @.str.15)
  br label %do.end

do.end:                                           ; preds = %entry, %if.then
  %call3 = tail call noundef i32 @_ZN3zmq5msg_t9init_sizeEm(ptr noundef nonnull align 8 dereferenceable(64) %msg_, i64 noundef 7)
  %cmp5.not = icmp eq i32 %call3, 0
  br i1 %cmp5.not, label %do.end13, label %if.then7

if.then7:                                         ; preds = %do.end
  %call8 = tail call ptr @__errno_location() #16
  %3 = load i32, ptr %call8, align 4
  %call9 = tail call ptr @strerror(i32 noundef %3) #17
  %4 = load ptr, ptr @stderr, align 8
  %call10 = tail call i32 (ptr, ptr, ...) @fprintf(ptr noundef %4, ptr noundef nonnull @.str, ptr noundef %call9, ptr noundef nonnull @.str.1, i32 noundef 454) #18
  %5 = load ptr, ptr @stderr, align 8
  %call11 = tail call i32 @fflush(ptr noundef %5)
  tail call void @_ZN3zmq9zmq_abortEPKc(ptr noundef %call9)
  br label %do.end13

do.end13:                                         ; preds = %do.end, %if.then7
  tail call void @_ZN3zmq5msg_t9set_flagsEh(ptr noundef nonnull align 8 dereferenceable(64) %msg_, i8 noundef zeroext 2)
  %call14 = tail call noundef ptr @_ZN3zmq5msg_t4dataEv(ptr noundef nonnull align 8 dereferenceable(64) %msg_)
  tail call void @llvm.memcpy.p0.p0.i64(ptr noundef nonnull align 1 dereferenceable(5) %call14, ptr noundef nonnull align 1 dereferenceable(5) @.str.16, i64 5, i1 false)
  %heartbeat_ttl = getelementptr inbounds i8, ptr %this, i64 970
  %6 = load i16, ptr %heartbeat_ttl, align 2
  %call15 = tail call zeroext i16 @htons(i16 noundef zeroext %6) #16
  %call16 = tail call noundef ptr @_ZN3zmq5msg_t4dataEv(ptr noundef nonnull align 8 dereferenceable(64) %msg_)
  %add.ptr = getelementptr inbounds i8, ptr %call16, i64 5
  store i16 %call15, ptr %add.ptr, align 1
  %7 = load ptr, ptr %_mechanism, align 8
  %vtable = load ptr, ptr %7, align 8
  %vfn = getelementptr inbounds i8, ptr %vtable, i64 32
  %8 = load ptr, ptr %vfn, align 8
  %call18 = tail call noundef i32 %8(ptr noundef nonnull align 8 dereferenceable(1488) %7, ptr noundef nonnull %msg_)
  %_next_msg = getelementptr inbounds i8, ptr %this, i64 1416
  store i64 ptrtoint (ptr @_ZN3zmq20stream_engine_base_t15pull_and_encodeEPNS_5msg_tE to i64), ptr %_next_msg, align 8
  %_next_msg.repack7 = getelementptr inbounds i8, ptr %this, i64 1424
  store i64 0, ptr %_next_msg.repack7, align 8
  %_has_timeout_timer = getelementptr inbounds i8, ptr %this, i64 1538
  %9 = load i8, ptr %_has_timeout_timer, align 2
  %10 = and i8 %9, 1
  %tobool.not = icmp eq i8 %10, 0
  br i1 %tobool.not, label %land.lhs.true, label %if.end23

land.lhs.true:                                    ; preds = %do.end13
  %_heartbeat_timeout = getelementptr inbounds i8, ptr %this, i64 1968
  %11 = load i32, ptr %_heartbeat_timeout, align 8
  %cmp19 = icmp sgt i32 %11, 0
  br i1 %cmp19, label %if.then20, label %if.end23

if.then20:                                        ; preds = %land.lhs.true
  tail call void @_ZN3zmq11io_object_t9add_timerEii(ptr noundef nonnull align 8 dereferenceable(16) %this, i32 noundef %11, i32 noundef 129)
  store i8 1, ptr %_has_timeout_timer, align 2
  br label %if.end23

if.end23:                                         ; preds = %if.then20, %land.lhs.true, %do.end13
  ret i32 %call18
}